; Function Attrs: nounwind uwtable
define internal range(i32 -1, 1) i32 @H5_default_vfd_init() #0 {
  %1 = tail call i64 @H5FD_sec2_init() #21
  %2 = icmp eq i64 %1, -1
  br i1 %2, label %3, label %7

3:                                                ; preds = %0
  %4 = load i64, ptr @H5E_FUNC_g, align 8
  %5 = load i64, ptr @H5E_CANTINIT_g, align 8
  %6 = tail call i32 (ptr, ptr, i32, i64, i64, ptr, ...) @H5E_printf_stack(ptr noundef nonnull @.str.30, ptr noundef nonnull @__func__.H5_default_vfd_init, i32 noundef 118, i64 noundef %4, i64 noundef %5, ptr noundef nonnull @.str.86) #21
  br label %7

7:                                                ; preds = %0, %3
  %.0 = phi i32 [ -1, %3 ], [ 0, %0 ]
  ret i32 %.0
}